target datalayout = "e-m:e-p270:32:32-p271:32:32-p272:64:64-i64:64-i128:128-f80:128-n8:16:32:64-S128"
target triple = "x86_64-pc-linux-gnu"

%"struct.folly::compression::zlib::Options" = type { i32, i32, i32, i32 }
%"class.folly::compression::zlib::(anonymous namespace)::ZlibStreamCodec" = type <{ %"class.folly::compression::StreamCodec.base", [3 x i8], %"struct.folly::compression::zlib::Options", [4 x i8], %"class.folly::Optional.10", %"class.folly::Optional.10", i32, i8, [3 x i8] }>
%"class.folly::compression::StreamCodec.base" = type <{ %"class.folly::compression::Codec.base", i32, %"class.folly::Range", %"class.folly::Optional", i8 }>
%"class.folly::compression::Codec.base" = type <{ ptr, i32 }>
%"class.folly::Range" = type { ptr, ptr }
%"class.folly::Optional" = type { %"struct.folly::Optional<unsigned long>::StorageTriviallyDestructible" }
%"struct.folly::Optional<unsigned long>::StorageTriviallyDestructible" = type <{ %union.anon, i8, [7 x i8] }>
%union.anon = type { i64 }
%"class.folly::Optional.10" = type { %"struct.folly::Optional<z_stream_s>::StorageTriviallyDestructible" }
%"struct.folly::Optional<z_stream_s>::StorageTriviallyDestructible" = type <{ %union.anon.11, i8, [7 x i8] }>
%union.anon.11 = type { %struct.z_stream_s }
%struct.z_stream_s = type { ptr, i32, i64, ptr, i32, i64, ptr, ptr, ptr, ptr, ptr, i32, i64, i64 }
%"class.folly::detail::ScopeGuardImpl" = type { %"class.folly::detail::ScopeGuardImplBase", %class.anon.31 }
%"class.folly::detail::ScopeGuardImplBase" = type { i8 }
%class.anon.31 = type { ptr, ptr, ptr }
%"class.folly::Range.30" = type { ptr, ptr }

; Function Attrs: alwaysinline mustprogress noreturn uwtable
define linkonce_odr hidden void @_ZN5folly15throw_exceptionINS_22OptionalEmptyExceptionEJEEEvDpOT0_() #14 comdat {
  call void @_ZN5folly6detail16throw_exception_INS_22OptionalEmptyExceptionEJEEEvDpT0_() #28
  unreachable
}

; Function Attrs: mustprogress uwtable
define linkonce_odr void @_ZNK5folly8OptionalI10z_stream_sE13require_valueEv(ptr noundef nonnull align 8 dereferenceable(120) %0) #0 comdat align 2 {
  %2 = alloca ptr, align 8
  store ptr %0, ptr %2, align 8, !tbaa !65
  %3 = load ptr, ptr %2, align 8
  %4 = getelementptr inbounds nuw %"class.folly::Optional.10", ptr %3, i32 0, i32 0
  %5 = getelementptr inbounds nuw %"struct.folly::Optional<z_stream_s>::StorageTriviallyDestructible", ptr %4, i32 0, i32 1
  %6 = load i8, ptr %5, align 8, !tbaa !155, !range !92, !noundef !93
  %7 = trunc i8 %6 to i1
  br i1 %7, label %9, label %8

8:                                                ; preds = %1
  call void @_ZN5folly15throw_exceptionINS_22OptionalEmptyExceptionEJEEEvDpOT0_() #26
  unreachable

9:                                                ; preds = %1
  ret void
}

; Function Attrs: mustprogress uwtable
define linkonce_odr noundef nonnull align 8 dereferenceable(112) ptr @_ZNR5folly8OptionalI10z_stream_sE5valueEv(ptr noundef nonnull align 8 dereferenceable(120) %0) #0 comdat align 2 {
  %2 = alloca ptr, align 8
  store ptr %0, ptr %2, align 8, !tbaa !65
  %3 = load ptr, ptr %2, align 8
  call void @_ZNK5folly8OptionalI10z_stream_sE13require_valueEv(ptr noundef nonnull align 8 dereferenceable(120) %3)
  %4 = getelementptr inbounds nuw %"class.folly::Optional.10", ptr %3, i32 0, i32 0
  %5 = getelementptr inbounds nuw %"struct.folly::Optional<z_stream_s>::StorageTriviallyDestructible", ptr %4, i32 0, i32 0
  ret ptr %5
}

; Function Attrs: mustprogress nounwind uwtable
define linkonce_odr void @_ZN5folly5RangeIPhE16uncheckedAdvanceEm(ptr noundef nonnull align 8 dereferenceable(16) %0, i64 noundef %1) #1 comdat align 2 {
  %3 = alloca ptr, align 8
  %4 = alloca i64, align 8
  store ptr %0, ptr %3, align 8, !tbaa !88
  store i64 %1, ptr %4, align 8, !tbaa !84
  %5 = load ptr, ptr %3, align 8
  %6 = load i64, ptr %4, align 8, !tbaa !84
  %7 = getelementptr inbounds nuw %"class.folly::Range.30", ptr %5, i32 0, i32 0
  %8 = load ptr, ptr %7, align 8, !tbaa !241
  %9 = getelementptr inbounds nuw i8, ptr %8, i64 %6
  store ptr %9, ptr %7, align 8, !tbaa !241
  ret void
}

; Function Attrs: mustprogress nounwind uwtable
define linkonce_odr noundef i64 @_ZNK5folly5RangeIPhE4sizeEv(ptr noundef nonnull align 8 dereferenceable(16) %0) #1 comdat align 2 {
  %2 = alloca ptr, align 8
  store ptr %0, ptr %2, align 8, !tbaa !88
  %3 = load ptr, ptr %2, align 8
  %4 = getelementptr inbounds nuw %"class.folly::Range.30", ptr %3, i32 0, i32 1
  %5 = load ptr, ptr %4, align 8, !tbaa !243
  %6 = getelementptr inbounds nuw %"class.folly::Range.30", ptr %3, i32 0, i32 0
  %7 = load ptr, ptr %6, align 8, !tbaa !241
  %8 = ptrtoint ptr %5 to i64
  %9 = ptrtoint ptr %7 to i64
  %10 = sub i64 %8, %9
  ret i64 %10
}

; Function Attrs: mustprogress nounwind uwtable
define linkonce_odr void @_ZN5folly5RangeIPKhE16uncheckedAdvanceEm(ptr noundef nonnull align 8 dereferenceable(16) %0, i64 noundef %1) #1 comdat align 2 {
  %3 = alloca ptr, align 8
  %4 = alloca i64, align 8
  store ptr %0, ptr %3, align 8, !tbaa !86
  store i64 %1, ptr %4, align 8, !tbaa !84
  %5 = load ptr, ptr %3, align 8
  %6 = load i64, ptr %4, align 8, !tbaa !84
  %7 = getelementptr inbounds nuw %"class.folly::Range", ptr %5, i32 0, i32 0
  %8 = load ptr, ptr %7, align 8, !tbaa !135
  %9 = getelementptr inbounds nuw i8, ptr %8, i64 %6
  store ptr %9, ptr %7, align 8, !tbaa !135
  ret void
}

; Function Attrs: mustprogress uwtable
define linkonce_odr noundef ptr @_ZN5folly8OptionalI10z_stream_sEptEv(ptr noundef nonnull align 8 dereferenceable(120) %0) #0 comdat align 2 {
  %2 = alloca ptr, align 8
  store ptr %0, ptr %2, align 8, !tbaa !65
  %3 = load ptr, ptr %2, align 8
  %4 = call noundef nonnull align 8 dereferenceable(112) ptr @_ZNR5folly8OptionalI10z_stream_sE5valueEv(ptr noundef nonnull align 8 dereferenceable(120) %3)
  ret ptr %4
}

; Function Attrs: mustprogress nounwind uwtable
define linkonce_odr noundef i64 @_ZNK5folly5RangeIPKhE4sizeEv(ptr noundef nonnull align 8 dereferenceable(16) %0) #1 comdat align 2 {
  %2 = alloca ptr, align 8
  store ptr %0, ptr %2, align 8, !tbaa !86
  %3 = load ptr, ptr %2, align 8
  %4 = getelementptr inbounds nuw %"class.folly::Range", ptr %3, i32 0, i32 1
  %5 = load ptr, ptr %4, align 8, !tbaa !136
  %6 = getelementptr inbounds nuw %"class.folly::Range", ptr %3, i32 0, i32 0
  %7 = load ptr, ptr %6, align 8, !tbaa !135
  %8 = ptrtoint ptr %5 to i64
  %9 = ptrtoint ptr %7 to i64
  %10 = sub i64 %8, %9
  ret i64 %10
}

; Function Attrs: inlinehint mustprogress nounwind uwtable
define internal void @"_ZZN5folly11compression4zlib12_GLOBAL__N_115ZlibStreamCodec16doCompressStreamERNS_5RangeIPKhEERNS4_IPhEENS0_11StreamCodec7FlushOpEENK3$_0clEv"(ptr noundef nonnull align 8 dereferenceable(24) %0) #16 align 2 personality ptr @__gxx_personality_v0 {
  %2 = alloca ptr, align 8
  store ptr %0, ptr %2, align 8, !tbaa !122
  %3 = load ptr, ptr %2, align 8
  %4 = getelementptr inbounds nuw %class.anon.31, ptr %3, i32 0, i32 1
  %5 = load ptr, ptr %4, align 8, !tbaa !101
  %6 = getelementptr inbounds nuw %class.anon.31, ptr %3, i32 0, i32 0
  %7 = load ptr, ptr %6, align 8, !tbaa !257
  %8 = getelementptr inbounds nuw %class.anon.31, ptr %3, i32 0, i32 0
  %9 = load ptr, ptr %8, align 8, !tbaa !257
  %10 = call noundef i64 @_ZNK5folly5RangeIPKhE4sizeEv(ptr noundef nonnull align 8 dereferenceable(16) %9)
  %11 = getelementptr inbounds nuw %"class.folly::compression::zlib::(anonymous namespace)::ZlibStreamCodec", ptr %5, i32 0, i32 4
  %12 = invoke noundef ptr @_ZN5folly8OptionalI10z_stream_sEptEv(ptr noundef nonnull align 8 dereferenceable(120) %11)
          to label %13 unwind label %32

13:                                               ; preds = %1
  %14 = getelementptr inbounds nuw %struct.z_stream_s, ptr %12, i32 0, i32 1
  %15 = load i32, ptr %14, align 8, !tbaa !98
  %16 = zext i32 %15 to i64
  %17 = sub i64 %10, %16
  invoke void @_ZN5folly5RangeIPKhE16uncheckedAdvanceEm(ptr noundef nonnull align 8 dereferenceable(16) %7, i64 noundef %17)
          to label %18 unwind label %32

18:                                               ; preds = %13
  %19 = getelementptr inbounds nuw %class.anon.31, ptr %3, i32 0, i32 2
  %20 = load ptr, ptr %19, align 8, !tbaa !258
  %21 = getelementptr inbounds nuw %class.anon.31, ptr %3, i32 0, i32 2
  %22 = load ptr, ptr %21, align 8, !tbaa !258
  %23 = call noundef i64 @_ZNK5folly5RangeIPhE4sizeEv(ptr noundef nonnull align 8 dereferenceable(16) %22)
  %24 = getelementptr inbounds nuw %"class.folly::compression::zlib::(anonymous namespace)::ZlibStreamCodec", ptr %5, i32 0, i32 4
  %25 = invoke noundef ptr @_ZN5folly8OptionalI10z_stream_sEptEv(ptr noundef nonnull align 8 dereferenceable(120) %24)
          to label %26 unwind label %32

26:                                               ; preds = %18
  %27 = getelementptr inbounds nuw %struct.z_stream_s, ptr %25, i32 0, i32 4
  %28 = load i32, ptr %27, align 8, !tbaa !100
  %29 = zext i32 %28 to i64
  %30 = sub i64 %23, %29
  invoke void @_ZN5folly5RangeIPhE16uncheckedAdvanceEm(ptr noundef nonnull align 8 dereferenceable(16) %20, i64 noundef %30)
          to label %31 unwind label %32

31:                                               ; preds = %26
  ret void

32:                                               ; preds = %26, %18, %13, %1
  %33 = landingpad { ptr, i32 }
          catch ptr null
  %34 = extractvalue { ptr, i32 } %33, 0
  call void @__clang_call_terminate(ptr %34) #25
  unreachable
}

; Function Attrs: alwaysinline mustprogress nounwind uwtable
define internal void @"_ZN5folly15catch_exceptionIRZNS_11compression4zlib12_GLOBAL__N_115ZlibStreamCodec16doCompressStreamERNS_5RangeIPKhEERNS5_IPhEENS1_11StreamCodec7FlushOpEE3$_0PDoFvvEJEvEET2_OT_OT0_DpOT1_"(ptr noundef nonnull align 8 dereferenceable(24) %0, ptr noundef nonnull align 8 dereferenceable(8) %1) #10 {
  %3 = alloca ptr, align 8
  %4 = alloca ptr, align 8
  store ptr %0, ptr %3, align 8, !tbaa !122
  store ptr %1, ptr %4, align 8, !tbaa !122
  %5 = load ptr, ptr %3, align 8, !tbaa !122
  call void @"_ZZN5folly11compression4zlib12_GLOBAL__N_115ZlibStreamCodec16doCompressStreamERNS_5RangeIPKhEERNS4_IPhEENS0_11StreamCodec7FlushOpEENK3$_0clEv"(ptr noundef nonnull align 8 dereferenceable(24) %5) #22
  ret void
}

; Function Attrs: mustprogress nounwind uwtable
define internal void @"_ZN5folly6detail14ScopeGuardImplIZNS_11compression4zlib12_GLOBAL__N_115ZlibStreamCodec16doCompressStreamERNS_5RangeIPKhEERNS6_IPhEENS2_11StreamCodec7FlushOpEE3$_0Lb1EE7executeEv"(ptr noundef nonnull align 8 dereferenceable(32) %0) #1 align 2 {
  %2 = alloca ptr, align 8
  %3 = alloca ptr, align 8
  store ptr %0, ptr %2, align 8, !tbaa !246
  %4 = load ptr, ptr %2, align 8
  %5 = getelementptr inbounds nuw %"class.folly::detail::ScopeGuardImpl", ptr %4, i32 0, i32 1
  call void @llvm.lifetime.start.p0(i64 8, ptr %3) #22
  store ptr @_ZN5folly6detail18ScopeGuardImplBase9terminateEv, ptr %3, align 8, !tbaa !122
  call void @"_ZN5folly15catch_exceptionIRZNS_11compression4zlib12_GLOBAL__N_115ZlibStreamCodec16doCompressStreamERNS_5RangeIPKhEERNS5_IPhEENS1_11StreamCodec7FlushOpEE3$_0PDoFvvEJEvEET2_OT_OT0_DpOT1_"(ptr noundef nonnull align 8 dereferenceable(24) %5, ptr noundef nonnull align 8 dereferenceable(8) %3) #22
  call void @llvm.lifetime.end.p0(i64 8, ptr %3) #22
  ret void
}

; Function Attrs: mustprogress nounwind uwtable
define internal void @"_ZN5folly6detail14ScopeGuardImplIZNS_11compression4zlib12_GLOBAL__N_115ZlibStreamCodec16doCompressStreamERNS_5RangeIPKhEERNS6_IPhEENS2_11StreamCodec7FlushOpEE3$_0Lb1EED2Ev"(ptr noundef nonnull align 8 dereferenceable(32) %0) unnamed_addr #1 align 2 {
  %2 = alloca ptr, align 8
  store ptr %0, ptr %2, align 8, !tbaa !246
  %3 = load ptr, ptr %2, align 8
  %4 = getelementptr inbounds nuw %"class.folly::detail::ScopeGuardImplBase", ptr %3, i32 0, i32 0
  %5 = load i8, ptr %4, align 8, !tbaa !248, !range !92, !noundef !93
  %6 = trunc i8 %5 to i1
  br i1 %6, label %8, label %7

7:                                                ; preds = %1
  call void @"_ZN5folly6detail14ScopeGuardImplIZNS_11compression4zlib12_GLOBAL__N_115ZlibStreamCodec16doCompressStreamERNS_5RangeIPKhEERNS6_IPhEENS2_11StreamCodec7FlushOpEE3$_0Lb1EE7executeEv"(ptr noundef nonnull align 8 dereferenceable(32) %3) #22
  br label %8

8:                                                ; preds = %7, %1
  ret void
}