; Function Attrs: mustprogress nounwind uwtable
define internal fastcc void @"_ZN5folly6detail14ScopeGuardImplIZNS_11compression4zlib12_GLOBAL__N_115ZlibStreamCodec16doCompressStreamERNS_5RangeIPKhEERNS6_IPhEENS2_11StreamCodec7FlushOpEE3$_0Lb1EED2Ev"(ptr noundef nonnull readonly align 8 captures(none) dereferenceable(32) %0) unnamed_addr #10 align 2 personality ptr @__gxx_personality_v0 {
  %2 = load i8, ptr %0, align 8, !tbaa !116, !range !57, !noundef !58
  %3 = trunc nuw i8 %2 to i1
  br i1 %3, label %40, label %4

4:                                                ; preds = %1
  %5 = getelementptr inbounds nuw i8, ptr %0, i64 16
  %6 = load ptr, ptr %5, align 8, !tbaa !138
  %7 = getelementptr inbounds nuw i8, ptr %6, i64 184
  %8 = load i8, ptr %7, align 8, !tbaa !56, !range !57, !noundef !58
  %9 = trunc nuw i8 %8 to i1
  br i1 %9, label %"_ZN5folly6detail14ScopeGuardImplIZNS_11compression4zlib12_GLOBAL__N_115ZlibStreamCodec16doCompressStreamERNS_5RangeIPKhEERNS6_IPhEENS2_11StreamCodec7FlushOpEE3$_0Lb1EE7executeEv.exit", label %10

10:                                               ; preds = %4
  invoke void @_ZN5folly6detail16throw_exception_INS_22OptionalEmptyExceptionEJEEEvDpT0_() #9
          to label %.noexc.i.i unwind label %11

.noexc.i.i:                                       ; preds = %10
  unreachable

11:                                               ; preds = %10
  %12 = landingpad { ptr, i32 }
          catch ptr null
  %13 = extractvalue { ptr, i32 } %12, 0
  tail call void @__clang_call_terminate(ptr %13) #28
  unreachable

"_ZN5folly6detail14ScopeGuardImplIZNS_11compression4zlib12_GLOBAL__N_115ZlibStreamCodec16doCompressStreamERNS_5RangeIPKhEERNS6_IPhEENS2_11StreamCodec7FlushOpEE3$_0Lb1EE7executeEv.exit": ; preds = %4
  %14 = getelementptr inbounds nuw i8, ptr %0, i64 8
  %15 = load ptr, ptr %14, align 8, !tbaa !140
  %16 = getelementptr inbounds nuw i8, ptr %15, i64 8
  %17 = load ptr, ptr %16, align 8, !tbaa !111
  %18 = ptrtoint ptr %17 to i64
  %19 = load ptr, ptr %15, align 8, !tbaa !107
  %20 = ptrtoint ptr %19 to i64
  %21 = getelementptr inbounds nuw i8, ptr %6, i64 80
  %22 = load i32, ptr %21, align 8, !tbaa !112
  %23 = zext i32 %22 to i64
  %24 = add i64 %20, %23
  %25 = sub i64 %18, %24
  %26 = getelementptr inbounds nuw i8, ptr %19, i64 %25
  store ptr %26, ptr %15, align 8, !tbaa !107
  %27 = getelementptr inbounds nuw i8, ptr %0, i64 24
  %28 = load ptr, ptr %27, align 8, !tbaa !141
  %29 = getelementptr inbounds nuw i8, ptr %28, i64 8
  %30 = load ptr, ptr %29, align 8, !tbaa !114
  %31 = load ptr, ptr %28, align 8, !tbaa !105
  %32 = ptrtoint ptr %30 to i64
  %33 = ptrtoint ptr %31 to i64
  %34 = getelementptr inbounds nuw i8, ptr %6, i64 104
  %35 = load i32, ptr %34, align 8, !tbaa !115
  %36 = zext i32 %35 to i64
  %37 = add i64 %33, %36
  %38 = sub i64 %32, %37
  %39 = getelementptr inbounds nuw i8, ptr %31, i64 %38
  store ptr %39, ptr %28, align 8, !tbaa !105
  br label %40

40:                                               ; preds = %"_ZN5folly6detail14ScopeGuardImplIZNS_11compression4zlib12_GLOBAL__N_115ZlibStreamCodec16doCompressStreamERNS_5RangeIPKhEERNS6_IPhEENS2_11StreamCodec7FlushOpEE3$_0Lb1EE7executeEv.exit", %1
  ret void
}